; ModuleID = '45/1411.c'
source_filename = "45/1411.c"
target datalayout = "e-m:e-p270:32:32-p271:32:32-p272:64:64-i64:64-f80:128-n8:16:32:64-S128"
target triple = "x86_64-pc-linux-gnu"

@.str = private unnamed_addr constant [3 x i8] c"%s\00", align 1
@.str.1 = private unnamed_addr constant [3 x i8] c"%d\00", align 1

; Function Attrs: noinline nounwind uwtable
define dso_local i32 @main() #0 {
  %1 = alloca i32, align 4
  %2 = alloca [50 x i8], align 16
  %3 = alloca [50 x i8], align 16
  %4 = alloca i32, align 4
  %5 = alloca i32, align 4
  %6 = alloca i32, align 4
  %7 = alloca i8*, align 8
  %8 = alloca i8*, align 8
  %9 = alloca i8*, align 8
  store i32 0, i32* %1, align 4
  %10 = getelementptr inbounds [50 x i8], [50 x i8]* %2, i64 0, i64 0
  %11 = call i32 (i8*, ...) @__isoc99_scanf(i8* getelementptr inbounds ([3 x i8], [3 x i8]* @.str, i64 0, i64 0), i8* %10)
  %12 = getelementptr inbounds [50 x i8], [50 x i8]* %3, i64 0, i64 0
  %13 = call i32 (i8*, ...) @__isoc99_scanf(i8* getelementptr inbounds ([3 x i8], [3 x i8]* @.str, i64 0, i64 0), i8* %12)
  %14 = getelementptr inbounds [50 x i8], [50 x i8]* %2, i64 0, i64 0
  store i8* %14, i8** %7, align 8
  %15 = getelementptr inbounds [50 x i8], [50 x i8]* %3, i64 0, i64 0
  store i8* %15, i8** %8, align 8
  store i32 0, i32* %6, align 4
  br label %16

16:                                               ; preds = %50, %0
  %17 = load i8*, i8** %8, align 8
  %18 = load i8, i8* %17, align 1
  %19 = sext i8 %18 to i32
  %20 = icmp ne i32 %19, 0
  br i1 %20, label %21, label %51

21:                                               ; preds = %16
  %22 = load i8*, i8** %7, align 8
  %23 = load i8, i8* %22, align 1
  %24 = sext i8 %23 to i32
  %25 = load i8*, i8** %8, align 8
  %26 = load i8, i8* %25, align 1
  %27 = sext i8 %26 to i32
  %28 = icmp ne i32 %24, %27
  br i1 %28, label %29, label %37

29:                                               ; preds = %21
  %30 = getelementptr inbounds [50 x i8], [50 x i8]* %2, i64 0, i64 0
  store i8* %30, i8** %7, align 8
  %31 = load i8*, i8** %8, align 8
  %32 = load i32, i32* %6, align 4
  %33 = sext i32 %32 to i64
  %34 = sub i64 0, %33
  %35 = getelementptr inbounds i8, i8* %31, i64 %34
  %36 = getelementptr inbounds i8, i8* %35, i64 1
  store i8* %36, i8** %8, align 8
  store i32 0, i32* %6, align 4
  br label %44

37:                                               ; preds = %21
  %38 = load i8*, i8** %7, align 8
  %39 = getelementptr inbounds i8, i8* %38, i32 1
  store i8* %39, i8** %7, align 8
  %40 = load i8*, i8** %8, align 8
  %41 = getelementptr inbounds i8, i8* %40, i32 1
  store i8* %41, i8** %8, align 8
  %42 = load i32, i32* %6, align 4
  %43 = add nsw i32 %42, 1
  store i32 %43, i32* %6, align 4
  br label %44

44:                                               ; preds = %37, %29
  %45 = load i8*, i8** %7, align 8
  %46 = load i8, i8* %45, align 1
  %47 = sext i8 %46 to i32
  %48 = icmp eq i32 %47, 0
  br i1 %48, label %49, label %50

49:                                               ; preds = %44
  br label %51

50:                                               ; preds = %44
  br label %16

51:                                               ; preds = %49, %16
  %52 = getelementptr inbounds [50 x i8], [50 x i8]* %3, i64 0, i64 0
  store i8* %52, i8** %9, align 8
  %53 = load i8*, i8** %8, align 8
  %54 = getelementptr inbounds [50 x i8], [50 x i8]* %3, i64 0, i64 0
  %55 = ptrtoint i8* %53 to i64
  %56 = ptrtoint i8* %54 to i64
  %57 = sub i64 %55, %56
  %58 = getelementptr inbounds [50 x i8], [50 x i8]* %2, i64 0, i64 0
  %59 = call i64 @strlen(i8* %58) #3
  %60 = sub i64 %57, %59
  %61 = call i32 (i8*, ...) @printf(i8* getelementptr inbounds ([3 x i8], [3 x i8]* @.str.1, i64 0, i64 0), i64 %60)
  ret i32 0
}

declare dso_local i32 @__isoc99_scanf(i8*, ...) #1

declare dso_local i32 @printf(i8*, ...) #1

; Function Attrs: nounwind readonly
declare dso_local i64 @strlen(i8*) #2


!llvm.module.flags = !{!0}
!llvm.ident = !{!1}

!0 = !{i32 1, !"wchar_size", i32 4}
!1 = !{!"clang version 10.0.0-4ubuntu1 "}
